; ModuleID = '44/1087.c'
source_filename = "44/1087.c"
target datalayout = "e-m:e-p270:32:32-p271:32:32-p272:64:64-i64:64-f80:128-n8:16:32:64-S128"
target triple = "x86_64-pc-linux-gnu"

@.str = private unnamed_addr constant [3 x i8] c"%d\00", align 1
@.str.1 = private unnamed_addr constant [4 x i8] c"%d\0A\00", align 1

; Function Attrs: noinline nounwind uwtable
define dso_local i32 @main() #0 {
  %1 = alloca i32, align 4
  %2 = alloca [6 x i32], align 16
  %3 = alloca [6 x i32], align 16
  %4 = alloca i32, align 4
  store i32 0, i32* %1, align 4
  store i32 0, i32* %4, align 4
  br label %5

5:                                                ; preds = %13, %0
  %6 = load i32, i32* %4, align 4
  %7 = icmp sle i32 %6, 5
  br i1 %7, label %8, label %16

8:                                                ; preds = %5
  %9 = load i32, i32* %4, align 4
  %10 = sext i32 %9 to i64
  %11 = getelementptr inbounds [6 x i32], [6 x i32]* %2, i64 0, i64 %10
  %12 = call i32 (i8*, ...) @__isoc99_scanf(i8* getelementptr inbounds ([3 x i8], [3 x i8]* @.str, i64 0, i64 0), i32* %11)
  br label %13

13:                                               ; preds = %8
  %14 = load i32, i32* %4, align 4
  %15 = add nsw i32 %14, 1
  store i32 %15, i32* %4, align 4
  br label %5

16:                                               ; preds = %5
  store i32 0, i32* %4, align 4
  br label %17

17:                                               ; preds = %29, %16
  %18 = load i32, i32* %4, align 4
  %19 = icmp sle i32 %18, 5
  br i1 %19, label %20, label %32

20:                                               ; preds = %17
  %21 = load i32, i32* %4, align 4
  %22 = sext i32 %21 to i64
  %23 = getelementptr inbounds [6 x i32], [6 x i32]* %2, i64 0, i64 %22
  %24 = load i32, i32* %23, align 4
  %25 = call i32 @reverse(i32 %24)
  %26 = load i32, i32* %4, align 4
  %27 = sext i32 %26 to i64
  %28 = getelementptr inbounds [6 x i32], [6 x i32]* %3, i64 0, i64 %27
  store i32 %25, i32* %28, align 4
  br label %29

29:                                               ; preds = %20
  %30 = load i32, i32* %4, align 4
  %31 = add nsw i32 %30, 1
  store i32 %31, i32* %4, align 4
  br label %17

32:                                               ; preds = %17
  store i32 0, i32* %4, align 4
  br label %33

33:                                               ; preds = %42, %32
  %34 = load i32, i32* %4, align 4
  %35 = icmp sle i32 %34, 5
  br i1 %35, label %36, label %45

36:                                               ; preds = %33
  %37 = load i32, i32* %4, align 4
  %38 = sext i32 %37 to i64
  %39 = getelementptr inbounds [6 x i32], [6 x i32]* %3, i64 0, i64 %38
  %40 = load i32, i32* %39, align 4
  %41 = call i32 (i8*, ...) @printf(i8* getelementptr inbounds ([4 x i8], [4 x i8]* @.str.1, i64 0, i64 0), i32 %40)
  br label %42

42:                                               ; preds = %36
  %43 = load i32, i32* %4, align 4
  %44 = add nsw i32 %43, 1
  store i32 %44, i32* %4, align 4
  br label %33

45:                                               ; preds = %33
  ret i32 0
}

declare dso_local i32 @__isoc99_scanf(i8*, ...) #1

; Function Attrs: noinline nounwind uwtable
define dso_local i32 @reverse(i32 %0) #0 {
  %2 = alloca i32, align 4
  %3 = alloca [8 x i32], align 16
  %4 = alloca i32, align 4
  %5 = alloca i32, align 4
  %6 = alloca i32, align 4
  store i32 %0, i32* %2, align 4
  store i32 8, i32* %5, align 4
  store i32 0, i32* %4, align 4
  %7 = load i32, i32* %2, align 4
  %8 = sdiv i32 %7, 10000000
  %9 = getelementptr inbounds [8 x i32], [8 x i32]* %3, i64 0, i64 7
  store i32 %8, i32* %9, align 4
  %10 = load i32, i32* %2, align 4
  %11 = sdiv i32 %10, 1000000
  %12 = srem i32 %11, 10
  %13 = getelementptr inbounds [8 x i32], [8 x i32]* %3, i64 0, i64 6
  store i32 %12, i32* %13, align 8
  %14 = load i32, i32* %2, align 4
  %15 = sdiv i32 %14, 100000
  %16 = srem i32 %15, 10
  %17 = getelementptr inbounds [8 x i32], [8 x i32]* %3, i64 0, i64 5
  store i32 %16, i32* %17, align 4
  %18 = load i32, i32* %2, align 4
  %19 = sdiv i32 %18, 10000
  %20 = srem i32 %19, 10
  %21 = getelementptr inbounds [8 x i32], [8 x i32]* %3, i64 0, i64 4
  store i32 %20, i32* %21, align 16
  %22 = load i32, i32* %2, align 4
  %23 = sdiv i32 %22, 1000
  %24 = srem i32 %23, 10
  %25 = getelementptr inbounds [8 x i32], [8 x i32]* %3, i64 0, i64 3
  store i32 %24, i32* %25, align 4
  %26 = load i32, i32* %2, align 4
  %27 = sdiv i32 %26, 100
  %28 = srem i32 %27, 10
  %29 = getelementptr inbounds [8 x i32], [8 x i32]* %3, i64 0, i64 2
  store i32 %28, i32* %29, align 8
  %30 = load i32, i32* %2, align 4
  %31 = sdiv i32 %30, 10
  %32 = srem i32 %31, 10
  %33 = getelementptr inbounds [8 x i32], [8 x i32]* %3, i64 0, i64 1
  store i32 %32, i32* %33, align 4
  %34 = load i32, i32* %2, align 4
  %35 = srem i32 %34, 10
  %36 = getelementptr inbounds [8 x i32], [8 x i32]* %3, i64 0, i64 0
  store i32 %35, i32* %36, align 16
  store i32 7, i32* %6, align 4
  br label %37

37:                                               ; preds = %57, %1
  %38 = load i32, i32* %6, align 4
  %39 = icmp sge i32 %38, 0
  br i1 %39, label %40, label %60

40:                                               ; preds = %37
  %41 = load i32, i32* %6, align 4
  %42 = sext i32 %41 to i64
  %43 = getelementptr inbounds [8 x i32], [8 x i32]* %3, i64 0, i64 %42
  %44 = load i32, i32* %43, align 4
  %45 = icmp eq i32 %44, 0
  br i1 %45, label %52, label %46

46:                                               ; preds = %40
  %47 = load i32, i32* %6, align 4
  %48 = sext i32 %47 to i64
  %49 = getelementptr inbounds [8 x i32], [8 x i32]* %3, i64 0, i64 %48
  %50 = load i32, i32* %49, align 4
  %51 = icmp eq i32 %50, 0
  br i1 %51, label %52, label %55

52:                                               ; preds = %46, %40
  %53 = load i32, i32* %5, align 4
  %54 = add nsw i32 %53, -1
  store i32 %54, i32* %5, align 4
  br label %56

55:                                               ; preds = %46
  br label %60

56:                                               ; preds = %52
  br label %57

57:                                               ; preds = %56
  %58 = load i32, i32* %6, align 4
  %59 = add nsw i32 %58, -1
  store i32 %59, i32* %6, align 4
  br label %37

60:                                               ; preds = %55, %37
  store i32 0, i32* %6, align 4
  br label %61

61:                                               ; preds = %83, %60
  %62 = load i32, i32* %6, align 4
  %63 = load i32, i32* %5, align 4
  %64 = sub nsw i32 %63, 1
  %65 = icmp sle i32 %62, %64
  br i1 %65, label %66, label %86

66:                                               ; preds = %61
  %67 = load i32, i32* %4, align 4
  %68 = sitofp i32 %67 to double
  %69 = load i32, i32* %6, align 4
  %70 = sext i32 %69 to i64
  %71 = getelementptr inbounds [8 x i32], [8 x i32]* %3, i64 0, i64 %70
  %72 = load i32, i32* %71, align 4
  %73 = sitofp i32 %72 to double
  %74 = load i32, i32* %5, align 4
  %75 = sub nsw i32 %74, 1
  %76 = load i32, i32* %6, align 4
  %77 = sub nsw i32 %75, %76
  %78 = sitofp i32 %77 to double
  %79 = call double @pow(double 1.000000e+01, double %78) #3
  %80 = fmul double %73, %79
  %81 = fadd double %68, %80
  %82 = fptosi double %81 to i32
  store i32 %82, i32* %4, align 4
  br label %83

83:                                               ; preds = %66
  %84 = load i32, i32* %6, align 4
  %85 = add nsw i32 %84, 1
  store i32 %85, i32* %6, align 4
  br label %61

86:                                               ; preds = %61
  %87 = load i32, i32* %4, align 4
  ret i32 %87
}

declare dso_local i32 @printf(i8*, ...) #1

; Function Attrs: nounwind
declare dso_local double @pow(double, double) #2


!llvm.module.flags = !{!0}
!llvm.ident = !{!1}

!0 = !{i32 1, !"wchar_size", i32 4}
!1 = !{!"clang version 10.0.0-4ubuntu1 "}
